target datalayout = "e-m:e-p270:32:32-p271:32:32-p272:64:64-i64:64-i128:128-f80:128-n8:16:32:64-S128"
target triple = "x86_64-unknown-linux-gnu"

%struct.qemu_plugin_parse_arg = type { ptr, ptr }

@.str = private unnamed_addr constant [7 x i8] c"plugin\00", align 1
@error_fatal = external global ptr, align 8

; Function Attrs: nounwind sspstrong uwtable
define dso_local void @qemu_plugin_opt_parse(ptr noundef %optstr, ptr noundef %head) #0 {
entry:
  %optstr.addr = alloca ptr, align 8
  %head.addr = alloca ptr, align 8
  %arg = alloca %struct.qemu_plugin_parse_arg, align 8
  %opts = alloca ptr, align 8
  store ptr %optstr, ptr %optstr.addr, align 8
  store ptr %head, ptr %head.addr, align 8
  %call = call ptr @qemu_find_opts(ptr noundef @.str)
  %0 = load ptr, ptr %optstr.addr, align 8
  %call1 = call ptr @qemu_opts_parse_noisily(ptr noundef %call, ptr noundef %0, i1 noundef zeroext true)
  store ptr %call1, ptr %opts, align 8
  %1 = load ptr, ptr %opts, align 8
  %cmp = icmp eq ptr %1, null
  br i1 %cmp, label %if.then, label %if.end

if.then:                                          ; preds = %entry
  call void @exit(i32 noundef 1) #9
  unreachable

if.end:                                           ; preds = %entry
  %2 = load ptr, ptr %head.addr, align 8
  %head2 = getelementptr inbounds %struct.qemu_plugin_parse_arg, ptr %arg, i32 0, i32 0
  store ptr %2, ptr %head2, align 8
  %curr = getelementptr inbounds %struct.qemu_plugin_parse_arg, ptr %arg, i32 0, i32 1
  store ptr null, ptr %curr, align 8
  %3 = load ptr, ptr %opts, align 8
  %call3 = call i32 @qemu_opt_foreach(ptr noundef %3, ptr noundef @plugin_add, ptr noundef %arg, ptr noundef @error_fatal)
  %4 = load ptr, ptr %opts, align 8
  call void @qemu_opts_del(ptr noundef %4)
  ret void
}