; Function Attrs: nounwind sspstrong uwtable
define dso_local void @qemu_plugin_opt_parse(ptr noundef %optstr, ptr noundef %head) local_unnamed_addr #0 {
entry:
  %arg = alloca %struct.qemu_plugin_parse_arg, align 8
  %call = tail call ptr @qemu_find_opts(ptr noundef nonnull @.str) #11
  %call1 = tail call ptr @qemu_opts_parse_noisily(ptr noundef %call, ptr noundef %optstr, i1 noundef zeroext true) #11
  %cmp = icmp eq ptr %call1, null
  br i1 %cmp, label %if.then, label %if.end

if.then:                                          ; preds = %entry
  tail call void @exit(i32 noundef 1) #13
  unreachable

if.end:                                           ; preds = %entry
  store ptr %head, ptr %arg, align 8
  %curr = getelementptr inbounds nuw i8, ptr %arg, i64 8
  store ptr null, ptr %curr, align 8
  %call3 = call i32 @qemu_opt_foreach(ptr noundef nonnull %call1, ptr noundef nonnull @plugin_add, ptr noundef nonnull %arg, ptr noundef nonnull @error_fatal) #11
  call void @qemu_opts_del(ptr noundef nonnull %call1) #11
  ret void
}